; ModuleID = 'source-C-CXX/22/727.c'
source_filename = "source-C-CXX/22/727.c"
target datalayout = "e-m:e-p270:32:32-p271:32:32-p272:64:64-i64:64-f80:128-n8:16:32:64-S128"
target triple = "x86_64-pc-linux-gnu"

@.str = private unnamed_addr constant [3 x i8] c"%s\00", align 1
@.str.1 = private unnamed_addr constant [4 x i8] c" %s\00", align 1

; Function Attrs: nounwind sspstrong uwtable
define dso_local void @main() local_unnamed_addr #0 {
  %1 = alloca [100 x [100 x i8]], align 16
  %2 = alloca [101 x i8], align 16
  %3 = getelementptr inbounds [100 x [100 x i8]], [100 x [100 x i8]]* %1, i64 0, i64 0, i64 0
  call void @llvm.lifetime.start.p0i8(i64 10000, i8* nonnull %3) #4
  %4 = getelementptr inbounds [101 x i8], [101 x i8]* %2, i64 0, i64 0
  call void @llvm.lifetime.start.p0i8(i64 101, i8* nonnull %4) #4
  %5 = call i32 (i8*, ...) bitcast (i32 (...)* @gets to i32 (i8*, ...)*)(i8* nonnull %4) #4
  br label %6

6:                                                ; preds = %26, %0
  %7 = phi i32 [ %30, %26 ], [ 0, %0 ]
  %8 = phi i32 [ %27, %26 ], [ 0, %0 ]
  br label %9

9:                                                ; preds = %6, %31
  %10 = phi i32 [ %32, %31 ], [ %8, %6 ]
  %11 = sext i32 %10 to i64
  %12 = getelementptr inbounds [101 x i8], [101 x i8]* %2, i64 0, i64 %11
  %13 = load i8, i8* %12, align 1, !tbaa !5
  switch i8 %13, label %14 [
    i8 0, label %33
    i8 32, label %31
  ]

14:                                               ; preds = %9
  %15 = zext i32 %7 to i64
  br label %16

16:                                               ; preds = %14, %20
  %17 = phi i8 [ %13, %14 ], [ %25, %20 ]
  %18 = phi i64 [ 0, %14 ], [ %23, %20 ]
  %19 = phi i64 [ %11, %14 ], [ %22, %20 ]
  switch i8 %17, label %20 [
    i8 32, label %26
    i8 0, label %26
  ]

20:                                               ; preds = %16
  %21 = getelementptr inbounds [100 x [100 x i8]], [100 x [100 x i8]]* %1, i64 0, i64 %15, i64 %18
  store i8 %17, i8* %21, align 1, !tbaa !5
  %22 = add i64 %19, 1
  %23 = add nuw i64 %18, 1
  %24 = getelementptr inbounds [101 x i8], [101 x i8]* %2, i64 0, i64 %22
  %25 = load i8, i8* %24, align 1, !tbaa !5
  br label %16, !llvm.loop !8

26:                                               ; preds = %16, %16
  %27 = trunc i64 %19 to i32
  %28 = and i64 %18, 4294967295
  %29 = getelementptr inbounds [100 x [100 x i8]], [100 x [100 x i8]]* %1, i64 0, i64 %15, i64 %28
  store i8 0, i8* %29, align 1, !tbaa !5
  %30 = add nuw nsw i32 %7, 1
  br label %6, !llvm.loop !10

31:                                               ; preds = %9
  %32 = add nsw i32 %10, 1
  br label %9, !llvm.loop !10

33:                                               ; preds = %9
  %34 = add nsw i32 %7, -1
  %35 = sext i32 %34 to i64
  %36 = getelementptr inbounds [100 x [100 x i8]], [100 x [100 x i8]]* %1, i64 0, i64 %35, i64 0
  %37 = call i32 (i8*, ...) @printf(i8* nonnull dereferenceable(1) getelementptr inbounds ([3 x i8], [3 x i8]* @.str, i64 0, i64 0), i8* nonnull %36)
  %38 = icmp ugt i32 %7, 1
  br i1 %38, label %39, label %48

39:                                               ; preds = %33
  %40 = add nsw i32 %7, -2
  %41 = zext i32 %40 to i64
  br label %42

42:                                               ; preds = %39, %42
  %43 = phi i64 [ %41, %39 ], [ %47, %42 ]
  %44 = getelementptr inbounds [100 x [100 x i8]], [100 x [100 x i8]]* %1, i64 0, i64 %43, i64 0
  %45 = call i32 (i8*, ...) @printf(i8* nonnull dereferenceable(1) getelementptr inbounds ([4 x i8], [4 x i8]* @.str.1, i64 0, i64 0), i8* nonnull %44)
  %46 = icmp sgt i64 %43, 0
  %47 = add nsw i64 %43, -1
  br i1 %46, label %42, label %48, !llvm.loop !11

48:                                               ; preds = %42, %33
  call void @llvm.lifetime.end.p0i8(i64 101, i8* nonnull %4) #4
  call void @llvm.lifetime.end.p0i8(i64 10000, i8* nonnull %3) #4
  ret void
}

; Function Attrs: argmemonly mustprogress nofree nosync nounwind willreturn
declare void @llvm.lifetime.start.p0i8(i64 immarg, i8* nocapture) #1

declare i32 @gets(...) local_unnamed_addr #2

; Function Attrs: nofree nounwind
declare noundef i32 @printf(i8* nocapture noundef readonly, ...) local_unnamed_addr #3

; Function Attrs: argmemonly mustprogress nofree nosync nounwind willreturn
declare void @llvm.lifetime.end.p0i8(i64 immarg, i8* nocapture) #1


!llvm.module.flags = !{!0, !1, !2, !3}
!llvm.ident = !{!4}

!0 = !{i32 1, !"wchar_size", i32 4}
!1 = !{i32 7, !"PIC Level", i32 2}
!2 = !{i32 7, !"PIE Level", i32 2}
!3 = !{i32 7, !"uwtable", i32 1}
!4 = !{!"clang version 13.0.0"}
!5 = !{!6, !6, i64 0}
!6 = !{!"omnipotent char", !7, i64 0}
!7 = !{!"Simple C/C++ TBAA"}
!8 = distinct !{!8, !9}
!9 = !{!"llvm.loop.mustprogress"}
!10 = distinct !{!10, !9}
!11 = distinct !{!11, !9}
